; Function Attrs: nounwind uwtable
define ptr @l_Std_Time_Internal_UnitVal_tdiv___rarg___boxed(ptr noundef %0, ptr noundef %1) #1 {
  %3 = ptrtoint ptr %0 to i64
  %4 = and i64 %3, 1
  %.not.i.i = icmp eq i64 %4, 0
  %.pre11 = ptrtoint ptr %1 to i64
  %.pre = and i64 %.pre11, 1
  %5 = icmp eq i64 %.pre, 0
  br i1 %.not.i.i, label %l_Std_Time_Internal_UnitVal_tdiv___rarg.exit, label %6, !prof !15

6:                                                ; preds = %2
  br i1 %5, label %l_Std_Time_Internal_UnitVal_tdiv___rarg.exit.thread15, label %8, !prof !15

l_Std_Time_Internal_UnitVal_tdiv___rarg.exit.thread15: ; preds = %6
  %7 = tail call ptr @lean_int_big_div(ptr noundef %0, ptr noundef %1) #5
  br label %27

8:                                                ; preds = %6
  %9 = and i64 %.pre11, 8589934590
  %10 = icmp eq i64 %9, 0
  br i1 %10, label %lean_dec.exit, label %11

11:                                               ; preds = %8
  %12 = shl i64 %.pre11, 31
  %13 = ashr i64 %12, 32
  %14 = shl i64 %3, 31
  %15 = ashr i64 %14, 32
  %16 = sdiv i64 %15, %13
  %17 = add nsw i64 %16, 2147483648
  %18 = icmp samesign ult i64 %17, 4294967296
  br i1 %18, label %19, label %24, !prof !11

19:                                               ; preds = %11
  %20 = shl nsw i64 %16, 1
  %21 = and i64 %20, 8589934590
  %22 = or disjoint i64 %21, 1
  %23 = inttoptr i64 %22 to ptr
  br label %lean_dec.exit

24:                                               ; preds = %11
  %25 = tail call ptr @lean_big_int64_to_int(i64 noundef range(i64 -4611686016279904256, 4611686018427387905) %16) #5
  br label %lean_dec.exit

l_Std_Time_Internal_UnitVal_tdiv___rarg.exit:     ; preds = %2
  %26 = tail call ptr @lean_int_big_div(ptr noundef %0, ptr noundef %1) #5
  br i1 %5, label %27, label %lean_dec.exit5.thread

27:                                               ; preds = %l_Std_Time_Internal_UnitVal_tdiv___rarg.exit.thread15, %l_Std_Time_Internal_UnitVal_tdiv___rarg.exit
  %28 = phi ptr [ %7, %l_Std_Time_Internal_UnitVal_tdiv___rarg.exit.thread15 ], [ %26, %l_Std_Time_Internal_UnitVal_tdiv___rarg.exit ]
  %29 = load i32, ptr %1, align 4, !tbaa !8
  %30 = icmp sgt i32 %29, 1
  br i1 %30, label %31, label %33, !prof !11

31:                                               ; preds = %27
  %32 = add nsw i32 %29, -1
  store i32 %32, ptr %1, align 4, !tbaa !8
  br label %lean_dec.exit5

33:                                               ; preds = %27
  %.not.i = icmp eq i32 %29, 0
  br i1 %.not.i, label %lean_dec.exit5, label %34

34:                                               ; preds = %33
  tail call void @lean_dec_ref_cold(ptr noundef nonnull %1) #5
  br label %lean_dec.exit5

lean_dec.exit5:                                   ; preds = %34, %33, %31
  br i1 %.not.i.i, label %lean_dec.exit5.thread, label %lean_dec.exit

lean_dec.exit5.thread:                            ; preds = %l_Std_Time_Internal_UnitVal_tdiv___rarg.exit, %lean_dec.exit5
  %.1.i.i1419 = phi ptr [ %28, %lean_dec.exit5 ], [ %26, %l_Std_Time_Internal_UnitVal_tdiv___rarg.exit ]
  %35 = load i32, ptr %0, align 4, !tbaa !8
  %36 = icmp sgt i32 %35, 1
  br i1 %36, label %37, label %39, !prof !11

37:                                               ; preds = %lean_dec.exit5.thread
  %38 = add nsw i32 %35, -1
  store i32 %38, ptr %0, align 4, !tbaa !8
  br label %lean_dec.exit

39:                                               ; preds = %lean_dec.exit5.thread
  %.not.i6 = icmp eq i32 %35, 0
  br i1 %.not.i6, label %lean_dec.exit, label %40

40:                                               ; preds = %39
  tail call void @lean_dec_ref_cold(ptr noundef nonnull %0) #5
  br label %lean_dec.exit

lean_dec.exit:                                    ; preds = %8, %19, %24, %40, %39, %37, %lean_dec.exit5
  %.1.i.i1418 = phi ptr [ %.1.i.i1419, %40 ], [ %.1.i.i1419, %39 ], [ %.1.i.i1419, %37 ], [ %28, %lean_dec.exit5 ], [ %25, %24 ], [ %23, %19 ], [ inttoptr (i64 1 to ptr), %8 ]
  ret ptr %.1.i.i1418
}